; Function Attrs: nounwind uwtable
define dso_local void @trigger_node_resume(ptr noundef readonly captures(none) %0) local_unnamed_addr #0 {
  %2 = tail call i32 @pthread_mutex_lock(ptr noundef nonnull @trigger_mutex) #12
  %.not = icmp eq i32 %2, 0
  br i1 %.not, label %5, label %3

3:                                                ; preds = %1
  %4 = tail call ptr @__errno_location() #13
  store i32 %2, ptr %4, align 4
  tail call void (ptr, ...) @fatal_abort(ptr noundef nonnull @.str.2, ptr noundef nonnull @__func__.trigger_node_resume) #14
  unreachable

5:                                                ; preds = %1
  %6 = load ptr, ptr @trigger_resume_nodes_bitmap, align 8
  %.not5 = icmp eq ptr %6, null
  br i1 %.not5, label %7, label %11

7:                                                ; preds = %5
  %8 = load i32, ptr @node_record_count, align 4
  %9 = sext i32 %8 to i64
  %10 = tail call ptr @bit_alloc(i64 noundef %9) #12
  store ptr %10, ptr @trigger_resume_nodes_bitmap, align 8
  br label %11

11:                                               ; preds = %7, %5
  %12 = phi ptr [ %10, %7 ], [ %6, %5 ]
  %13 = getelementptr inbounds nuw i8, ptr %0, i64 208
  %14 = load i32, ptr %13, align 8
  %15 = zext i32 %14 to i64
  tail call void @bit_set(ptr noundef %12, i64 noundef %15) #12
  %16 = tail call i32 @pthread_mutex_unlock(ptr noundef nonnull @trigger_mutex) #12
  %.not6 = icmp eq i32 %16, 0
  br i1 %.not6, label %19, label %17

17:                                               ; preds = %11
  %18 = tail call ptr @__errno_location() #13
  store i32 %16, ptr %18, align 4
  tail call void (ptr, ...) @fatal_abort(ptr noundef nonnull @.str.3, ptr noundef nonnull @__func__.trigger_node_resume) #14
  unreachable

19:                                               ; preds = %11
  ret void
}